; Function Attrs: mustprogress nofree norecurse nosync nounwind willreturn memory(read, argmem: readwrite, inaccessiblemem: none) uwtable
define noundef i32 @H5HF__man_iblock_entry_addr(ptr noundef readonly captures(none) %0, i32 noundef %1, ptr noundef writeonly captures(none) %2) local_unnamed_addr #4 {
  %4 = load i8, ptr @H5HF_init_g, align 1, !tbaa !3, !range !7, !noundef !8
  %5 = trunc nuw i8 %4 to i1
  %6 = load i8, ptr @H5_libterm_g, align 1, !range !7
  %7 = trunc nuw i8 %6 to i1
  %8 = xor i1 %7, true
  %9 = select i1 %5, i1 true, i1 %8
  br i1 %9, label %10, label %16, !prof !9

10:                                               ; preds = %3
  %11 = getelementptr inbounds nuw i8, ptr %0, i64 344
  %12 = load ptr, ptr %11, align 8, !tbaa !50
  %13 = zext i32 %1 to i64
  %14 = getelementptr inbounds nuw %struct.H5HF_indirect_ent_t, ptr %12, i64 %13
  %15 = load i64, ptr %14, align 8, !tbaa !92
  store i64 %15, ptr %2, align 8, !tbaa !48
  br label %16

16:                                               ; preds = %10, %3
  ret i32 0
}